target datalayout = "e-m:e-p270:32:32-p271:32:32-p272:64:64-i64:64-i128:128-f80:128-n8:16:32:64-S128"
target triple = "x86_64-pc-linux-gnu"

%struct.ident_t = type { i32, i32, i32, i32, ptr }
%"class.ncnn::Mat" = type { ptr, ptr, i64, i32, ptr, i32, i32, i32, i32, i32, i64 }

@1 = private unnamed_addr constant %struct.ident_t { i32 0, i32 514, i32 0, i32 22, ptr @0 }, align 8

; Function Attrs: alwaysinline mustprogress nounwind uwtable
define internal noundef nofpclass(nan inf) <8 x float> @_ZL13_mm256_add_psDv8_fS_(<8 x float> noundef nofpclass(nan inf) %0, <8 x float> noundef nofpclass(nan inf) %1) #10 {
  %3 = alloca <8 x float>, align 32
  %4 = alloca <8 x float>, align 32
  store <8 x float> %0, ptr %3, align 32, !tbaa !61
  store <8 x float> %1, ptr %4, align 32, !tbaa !61
  %5 = load <8 x float>, ptr %3, align 32, !tbaa !61
  %6 = load <8 x float>, ptr %4, align 32, !tbaa !61
  %7 = fadd fast <8 x float> %5, %6
  ret <8 x float> %7
}

; Function Attrs: alwaysinline mustprogress nounwind uwtable
define internal noundef nofpclass(nan inf) <8 x float> @_ZL13_mm256_set_psffffffff(float noundef nofpclass(nan inf) %0, float noundef nofpclass(nan inf) %1, float noundef nofpclass(nan inf) %2, float noundef nofpclass(nan inf) %3, float noundef nofpclass(nan inf) %4, float noundef nofpclass(nan inf) %5, float noundef nofpclass(nan inf) %6, float noundef nofpclass(nan inf) %7) #10 {
  %9 = alloca float, align 4
  %10 = alloca float, align 4
  %11 = alloca float, align 4
  %12 = alloca float, align 4
  %13 = alloca float, align 4
  %14 = alloca float, align 4
  %15 = alloca float, align 4
  %16 = alloca float, align 4
  %17 = alloca <8 x float>, align 32
  store float %0, ptr %9, align 4, !tbaa !49
  store float %1, ptr %10, align 4, !tbaa !49
  store float %2, ptr %11, align 4, !tbaa !49
  store float %3, ptr %12, align 4, !tbaa !49
  store float %4, ptr %13, align 4, !tbaa !49
  store float %5, ptr %14, align 4, !tbaa !49
  store float %6, ptr %15, align 4, !tbaa !49
  store float %7, ptr %16, align 4, !tbaa !49
  %18 = load float, ptr %16, align 4, !tbaa !49
  %19 = insertelement <8 x float> poison, float %18, i32 0
  %20 = load float, ptr %15, align 4, !tbaa !49
  %21 = insertelement <8 x float> %19, float %20, i32 1
  %22 = load float, ptr %14, align 4, !tbaa !49
  %23 = insertelement <8 x float> %21, float %22, i32 2
  %24 = load float, ptr %13, align 4, !tbaa !49
  %25 = insertelement <8 x float> %23, float %24, i32 3
  %26 = load float, ptr %12, align 4, !tbaa !49
  %27 = insertelement <8 x float> %25, float %26, i32 4
  %28 = load float, ptr %11, align 4, !tbaa !49
  %29 = insertelement <8 x float> %27, float %28, i32 5
  %30 = load float, ptr %10, align 4, !tbaa !49
  %31 = insertelement <8 x float> %29, float %30, i32 6
  %32 = load float, ptr %9, align 4, !tbaa !49
  %33 = insertelement <8 x float> %31, float %32, i32 7
  store <8 x float> %33, ptr %17, align 32, !tbaa !61
  %34 = load <8 x float>, ptr %17, align 32, !tbaa !61
  ret <8 x float> %34
}

; Function Attrs: noinline noreturn nounwind uwtable
define linkonce_odr hidden void @__clang_call_terminate(ptr noundef %0) #9 comdat {
  %2 = call ptr @__cxa_begin_catch(ptr %0) #8
  call void @_ZSt9terminatev() #24
  unreachable
}

; Function Attrs: alwaysinline mustprogress nounwind uwtable
define internal void @_ZL15_mm256_store_psPfDv8_f(ptr noundef %0, <8 x float> noundef nofpclass(nan inf) %1) #10 {
  %3 = alloca ptr, align 8
  %4 = alloca <8 x float>, align 32
  store ptr %0, ptr %3, align 8, !tbaa !51
  store <8 x float> %1, ptr %4, align 32, !tbaa !61
  %5 = load <8 x float>, ptr %4, align 32, !tbaa !61
  %6 = load ptr, ptr %3, align 8, !tbaa !51
  store <8 x float> %5, ptr %6, align 32, !tbaa !61
  ret void
}

; Function Attrs: alwaysinline mustprogress uwtable
define internal noundef nofpclass(nan inf) <8 x float> @_ZL20_mm256_comp_fmadd_psRKDv8_fS1_S1_(ptr noundef nonnull align 32 dereferenceable(32) %0, ptr noundef nonnull align 32 dereferenceable(32) %1, ptr noundef nonnull align 32 dereferenceable(32) %2) #12 {
  %4 = alloca ptr, align 8
  %5 = alloca ptr, align 8
  %6 = alloca ptr, align 8
  store ptr %0, ptr %4, align 8, !tbaa !82
  store ptr %1, ptr %5, align 8, !tbaa !82
  store ptr %2, ptr %6, align 8, !tbaa !82
  %7 = load ptr, ptr %4, align 8, !tbaa !82
  %8 = load <8 x float>, ptr %7, align 32, !tbaa !61
  %9 = load ptr, ptr %5, align 8, !tbaa !82
  %10 = load <8 x float>, ptr %9, align 32, !tbaa !61
  %11 = call fast noundef nofpclass(nan inf) <8 x float> @_ZL13_mm256_mul_psDv8_fS_(<8 x float> noundef nofpclass(nan inf) %8, <8 x float> noundef nofpclass(nan inf) %10)
  %12 = load ptr, ptr %6, align 8, !tbaa !82
  %13 = load <8 x float>, ptr %12, align 32, !tbaa !61
  %14 = call fast noundef nofpclass(nan inf) <8 x float> @_ZL13_mm256_add_psDv8_fS_(<8 x float> noundef nofpclass(nan inf) %11, <8 x float> noundef nofpclass(nan inf) %13)
  ret <8 x float> %14
}

; Function Attrs: alwaysinline mustprogress nounwind uwtable
define internal noundef nofpclass(nan inf) <8 x float> @_ZL13_mm256_mul_psDv8_fS_(<8 x float> noundef nofpclass(nan inf) %0, <8 x float> noundef nofpclass(nan inf) %1) #10 {
  %3 = alloca <8 x float>, align 32
  %4 = alloca <8 x float>, align 32
  store <8 x float> %0, ptr %3, align 32, !tbaa !61
  store <8 x float> %1, ptr %4, align 32, !tbaa !61
  %5 = load <8 x float>, ptr %3, align 32, !tbaa !61
  %6 = load <8 x float>, ptr %4, align 32, !tbaa !61
  %7 = fmul fast <8 x float> %5, %6
  ret <8 x float> %7
}

; Function Attrs: alwaysinline mustprogress nounwind uwtable
define internal noundef nofpclass(nan inf) <8 x float> @_ZL14_mm256_load_psPKf(ptr noundef %0) #10 {
  %2 = alloca ptr, align 8
  store ptr %0, ptr %2, align 8, !tbaa !51
  %3 = load ptr, ptr %2, align 8, !tbaa !51
  %4 = load <8 x float>, ptr %3, align 32, !tbaa !61
  ret <8 x float> %4
}

; Function Attrs: alwaysinline mustprogress uwtable
define internal noundef nofpclass(nan inf) <8 x float> @_ZL14_mm256_set1_psf(float noundef nofpclass(nan inf) %0) #12 {
  %2 = alloca float, align 4
  store float %0, ptr %2, align 4, !tbaa !49
  %3 = load float, ptr %2, align 4, !tbaa !49
  %4 = load float, ptr %2, align 4, !tbaa !49
  %5 = load float, ptr %2, align 4, !tbaa !49
  %6 = load float, ptr %2, align 4, !tbaa !49
  %7 = load float, ptr %2, align 4, !tbaa !49
  %8 = load float, ptr %2, align 4, !tbaa !49
  %9 = load float, ptr %2, align 4, !tbaa !49
  %10 = load float, ptr %2, align 4, !tbaa !49
  %11 = call fast noundef nofpclass(nan inf) <8 x float> @_ZL13_mm256_set_psffffffff(float noundef nofpclass(nan inf) %3, float noundef nofpclass(nan inf) %4, float noundef nofpclass(nan inf) %5, float noundef nofpclass(nan inf) %6, float noundef nofpclass(nan inf) %7, float noundef nofpclass(nan inf) %8, float noundef nofpclass(nan inf) %9, float noundef nofpclass(nan inf) %10)
  ret <8 x float> %11
}

; Function Attrs: alwaysinline mustprogress nounwind uwtable
define linkonce_odr hidden noundef ptr @_ZN4ncnn3Mat3rowEi(ptr noundef nonnull align 8 dereferenceable(72) %0, i32 noundef %1) #11 comdat align 2 {
  %3 = alloca ptr, align 8
  %4 = alloca i32, align 4
  store ptr %0, ptr %3, align 8, !tbaa !13
  store i32 %1, ptr %4, align 4, !tbaa !21
  %5 = load ptr, ptr %3, align 8
  %6 = getelementptr inbounds nuw %"class.ncnn::Mat", ptr %5, i32 0, i32 0
  %7 = load ptr, ptr %6, align 8, !tbaa !60
  %8 = getelementptr inbounds nuw %"class.ncnn::Mat", ptr %5, i32 0, i32 6
  %9 = load i32, ptr %8, align 4, !tbaa !22
  %10 = sext i32 %9 to i64
  %11 = load i32, ptr %4, align 4, !tbaa !21
  %12 = sext i32 %11 to i64
  %13 = mul i64 %10, %12
  %14 = getelementptr inbounds nuw %"class.ncnn::Mat", ptr %5, i32 0, i32 2
  %15 = load i64, ptr %14, align 8, !tbaa !25
  %16 = mul i64 %13, %15
  %17 = getelementptr inbounds nuw i8, ptr %7, i64 %16
  ret ptr %17
}

; Function Attrs: alwaysinline mustprogress nounwind uwtable
define linkonce_odr hidden noundef ptr @_ZNK4ncnn3Mat3rowEi(ptr noundef nonnull align 8 dereferenceable(72) %0, i32 noundef %1) #11 comdat align 2 {
  %3 = alloca ptr, align 8
  %4 = alloca i32, align 4
  store ptr %0, ptr %3, align 8, !tbaa !13
  store i32 %1, ptr %4, align 4, !tbaa !21
  %5 = load ptr, ptr %3, align 8
  %6 = getelementptr inbounds nuw %"class.ncnn::Mat", ptr %5, i32 0, i32 0
  %7 = load ptr, ptr %6, align 8, !tbaa !60
  %8 = getelementptr inbounds nuw %"class.ncnn::Mat", ptr %5, i32 0, i32 6
  %9 = load i32, ptr %8, align 4, !tbaa !22
  %10 = sext i32 %9 to i64
  %11 = load i32, ptr %4, align 4, !tbaa !21
  %12 = sext i32 %11 to i64
  %13 = mul i64 %10, %12
  %14 = getelementptr inbounds nuw %"class.ncnn::Mat", ptr %5, i32 0, i32 2
  %15 = load i64, ptr %14, align 8, !tbaa !25
  %16 = mul i64 %13, %15
  %17 = getelementptr inbounds nuw i8, ptr %7, i64 %16
  ret ptr %17
}

; Function Attrs: alwaysinline norecurse nounwind uwtable
define internal void @_ZNK4ncnn14Interp_x86_avx7forwardERKSt6vectorINS_3MatESaIS2_EERS4_RKNS_6OptionE.omp_outlined.4(ptr noalias noundef %0, ptr noalias noundef %1, ptr noundef nonnull align 4 dereferenceable(4) %2, ptr noundef nonnull align 8 dereferenceable(72) %3, ptr noundef nonnull align 8 dereferenceable(72) %4, ptr noundef nonnull align 8 dereferenceable(8) %5, ptr noundef nonnull align 4 dereferenceable(4) %6, ptr noundef nonnull align 8 dereferenceable(8) %7) #7 personality ptr @__gxx_personality_v0 {
  %9 = alloca ptr, align 8
  %10 = alloca ptr, align 8
  %11 = alloca ptr, align 8
  %12 = alloca ptr, align 8
  %13 = alloca ptr, align 8
  %14 = alloca ptr, align 8
  %15 = alloca ptr, align 8
  %16 = alloca ptr, align 8
  %17 = alloca ptr, align 8
  %18 = alloca ptr, align 8
  %19 = alloca i32, align 4
  %20 = alloca i32, align 4
  %21 = alloca i32, align 4
  %22 = alloca i32, align 4
  %23 = alloca i32, align 4
  %24 = alloca i32, align 4
  %25 = alloca i32, align 4
  %26 = alloca i32, align 4
  %27 = alloca i32, align 4
  %28 = alloca ptr, align 8
  %29 = alloca ptr, align 8
  %30 = alloca ptr, align 8
  %31 = alloca i32, align 4
  %32 = alloca i32, align 4
  %33 = alloca ptr, align 8
  %34 = alloca <8 x float>, align 32
  %35 = alloca <8 x float>, align 32
  %36 = alloca <8 x float>, align 32
  %37 = alloca <8 x float>, align 32
  %38 = alloca <8 x float>, align 32
  store ptr %0, ptr %9, align 8, !tbaa !50
  store ptr %1, ptr %10, align 8, !tbaa !50
  store ptr %2, ptr %11, align 8, !tbaa !50
  store ptr %3, ptr %12, align 8, !tbaa !13
  store ptr %4, ptr %13, align 8, !tbaa !13
  store ptr %5, ptr %14, align 8, !tbaa !76
  store ptr %6, ptr %15, align 8, !tbaa !50
  store ptr %7, ptr %16, align 8, !tbaa !79
  %39 = load ptr, ptr %11, align 8, !tbaa !50
  %40 = load ptr, ptr %12, align 8, !tbaa !13
  %41 = load ptr, ptr %13, align 8, !tbaa !13
  %42 = load ptr, ptr %14, align 8, !tbaa !76
  %43 = load ptr, ptr %15, align 8, !tbaa !50
  %44 = load ptr, ptr %16, align 8, !tbaa !79
  store ptr %40, ptr %17, align 8
  store ptr %41, ptr %18, align 8
  call void @llvm.lifetime.start.p0(i64 4, ptr %19) #8
  call void @llvm.lifetime.start.p0(i64 4, ptr %20) #8
  %45 = load i32, ptr %39, align 4, !tbaa !21
  store i32 %45, ptr %20, align 4, !tbaa !21
  call void @llvm.lifetime.start.p0(i64 4, ptr %21) #8
  %46 = load i32, ptr %20, align 4, !tbaa !21
  %47 = sub nsw i32 %46, 0
  %48 = sdiv i32 %47, 1
  %49 = sub nsw i32 %48, 1
  store i32 %49, ptr %21, align 4, !tbaa !21
  call void @llvm.lifetime.start.p0(i64 4, ptr %22) #8
  store i32 0, ptr %22, align 4, !tbaa !21
  call void @llvm.lifetime.end.p0(i64 4, ptr %22) #8
  %50 = load i32, ptr %20, align 4, !tbaa !21
  %51 = icmp slt i32 0, %50
  br i1 %51, label %52, label %142

52:                                               ; preds = %8
  call void @llvm.lifetime.start.p0(i64 4, ptr %23) #8
  store i32 0, ptr %23, align 4, !tbaa !21
  call void @llvm.lifetime.start.p0(i64 4, ptr %24) #8
  %53 = load i32, ptr %21, align 4, !tbaa !21
  store i32 %53, ptr %24, align 4, !tbaa !21
  call void @llvm.lifetime.start.p0(i64 4, ptr %25) #8
  store i32 1, ptr %25, align 4, !tbaa !21
  call void @llvm.lifetime.start.p0(i64 4, ptr %26) #8
  store i32 0, ptr %26, align 4, !tbaa !21
  call void @llvm.lifetime.start.p0(i64 4, ptr %27) #8
  %54 = load ptr, ptr %9, align 8
  %55 = load i32, ptr %54, align 4, !tbaa !21
  call void @__kmpc_for_static_init_4(ptr @1, i32 %55, i32 34, ptr %26, ptr %23, ptr %24, ptr %25, i32 1, i32 1)
  %56 = load i32, ptr %24, align 4, !tbaa !21
  %57 = load i32, ptr %21, align 4, !tbaa !21
  %58 = icmp sgt i32 %56, %57
  br i1 %58, label %59, label %61

59:                                               ; preds = %52
  %60 = load i32, ptr %21, align 4, !tbaa !21
  br label %63

61:                                               ; preds = %52
  %62 = load i32, ptr %24, align 4, !tbaa !21
  br label %63

63:                                               ; preds = %61, %59
  %64 = phi i32 [ %60, %59 ], [ %62, %61 ]
  store i32 %64, ptr %24, align 4, !tbaa !21
  %65 = load i32, ptr %23, align 4, !tbaa !21
  store i32 %65, ptr %19, align 4, !tbaa !21
  br label %66

66:                                               ; preds = %135, %63
  %67 = load i32, ptr %19, align 4, !tbaa !21
  %68 = load i32, ptr %24, align 4, !tbaa !21
  %69 = icmp sle i32 %67, %68
  br i1 %69, label %71, label %70

70:                                               ; preds = %66
  br label %138

71:                                               ; preds = %66
  %72 = load i32, ptr %19, align 4, !tbaa !21
  %73 = mul nsw i32 %72, 1
  %74 = add nsw i32 0, %73
  store i32 %74, ptr %27, align 4, !tbaa !21
  call void @llvm.lifetime.start.p0(i64 8, ptr %28) #8
  %75 = load ptr, ptr %17, align 8, !tbaa !13
  %76 = load i32, ptr %27, align 4, !tbaa !21
  %77 = invoke noundef ptr @_ZNK4ncnn3Mat3rowEi(ptr noundef nonnull align 8 dereferenceable(72) %75, i32 noundef %76)
          to label %78 unwind label %143

78:                                               ; preds = %71
  store ptr %77, ptr %28, align 8, !tbaa !51
  call void @llvm.lifetime.start.p0(i64 8, ptr %29) #8
  %79 = load ptr, ptr %18, align 8, !tbaa !13
  %80 = load i32, ptr %27, align 4, !tbaa !21
  %81 = invoke noundef ptr @_ZN4ncnn3Mat3rowEi(ptr noundef nonnull align 8 dereferenceable(72) %79, i32 noundef %80)
          to label %82 unwind label %143

82:                                               ; preds = %78
  store ptr %81, ptr %29, align 8, !tbaa !51
  call void @llvm.lifetime.start.p0(i64 8, ptr %30) #8
  %83 = load ptr, ptr %42, align 8, !tbaa !51
  store ptr %83, ptr %30, align 8, !tbaa !51
  call void @llvm.lifetime.start.p0(i64 4, ptr %31) #8
  store i32 0, ptr %31, align 4, !tbaa !21
  br label %84

84:                                               ; preds = %130, %82
  %85 = load i32, ptr %31, align 4, !tbaa !21
  %86 = load i32, ptr %43, align 4, !tbaa !21
  %87 = icmp slt i32 %85, %86
  br i1 %87, label %89, label %88

88:                                               ; preds = %84
  call void @llvm.lifetime.end.p0(i64 4, ptr %31) #8
  br label %133

89:                                               ; preds = %84
  call void @llvm.lifetime.start.p0(i64 4, ptr %32) #8
  %90 = load ptr, ptr %44, align 8, !tbaa !50
  %91 = load i32, ptr %31, align 4, !tbaa !21
  %92 = sext i32 %91 to i64
  %93 = getelementptr inbounds i32, ptr %90, i64 %92
  %94 = load i32, ptr %93, align 4, !tbaa !21
  %95 = mul nsw i32 %94, 8
  store i32 %95, ptr %32, align 4, !tbaa !21
  call void @llvm.lifetime.start.p0(i64 8, ptr %33) #8
  %96 = load ptr, ptr %28, align 8, !tbaa !51
  %97 = load i32, ptr %32, align 4, !tbaa !21
  %98 = sext i32 %97 to i64
  %99 = getelementptr inbounds float, ptr %96, i64 %98
  store ptr %99, ptr %33, align 8, !tbaa !51
  call void @llvm.lifetime.start.p0(i64 32, ptr %34) #8
  %100 = load ptr, ptr %30, align 8, !tbaa !51
  %101 = getelementptr inbounds float, ptr %100, i64 0
  %102 = load float, ptr %101, align 4, !tbaa !49
  %103 = invoke noundef nofpclass(nan inf) <8 x float> @_ZL14_mm256_set1_psf(float noundef nofpclass(nan inf) %102)
          to label %104 unwind label %143

104:                                              ; preds = %89
  store <8 x float> %103, ptr %34, align 32, !tbaa !61
  call void @llvm.lifetime.start.p0(i64 32, ptr %35) #8
  %105 = load ptr, ptr %30, align 8, !tbaa !51
  %106 = getelementptr inbounds float, ptr %105, i64 1
  %107 = load float, ptr %106, align 4, !tbaa !49
  %108 = invoke noundef nofpclass(nan inf) <8 x float> @_ZL14_mm256_set1_psf(float noundef nofpclass(nan inf) %107)
          to label %109 unwind label %143

109:                                              ; preds = %104
  store <8 x float> %108, ptr %35, align 32, !tbaa !61
  call void @llvm.lifetime.start.p0(i64 32, ptr %36) #8
  %110 = load ptr, ptr %33, align 8, !tbaa !51
  %111 = invoke noundef nofpclass(nan inf) <8 x float> @_ZL14_mm256_load_psPKf(ptr noundef %110)
          to label %112 unwind label %143

112:                                              ; preds = %109
  store <8 x float> %111, ptr %36, align 32, !tbaa !61
  call void @llvm.lifetime.start.p0(i64 32, ptr %37) #8
  %113 = load ptr, ptr %33, align 8, !tbaa !51
  %114 = getelementptr inbounds float, ptr %113, i64 8
  %115 = invoke noundef nofpclass(nan inf) <8 x float> @_ZL14_mm256_load_psPKf(ptr noundef %114)
          to label %116 unwind label %143

116:                                              ; preds = %112
  store <8 x float> %115, ptr %37, align 32, !tbaa !61
  call void @llvm.lifetime.start.p0(i64 32, ptr %38) #8
  %117 = load <8 x float>, ptr %36, align 32, !tbaa !61
  %118 = load <8 x float>, ptr %34, align 32, !tbaa !61
  %119 = invoke noundef nofpclass(nan inf) <8 x float> @_ZL13_mm256_mul_psDv8_fS_(<8 x float> noundef nofpclass(nan inf) %117, <8 x float> noundef nofpclass(nan inf) %118)
          to label %120 unwind label %143

120:                                              ; preds = %116
  store <8 x float> %119, ptr %38, align 32, !tbaa !61
  %121 = invoke noundef nofpclass(nan inf) <8 x float> @_ZL20_mm256_comp_fmadd_psRKDv8_fS1_S1_(ptr noundef nonnull align 32 dereferenceable(32) %37, ptr noundef nonnull align 32 dereferenceable(32) %35, ptr noundef nonnull align 32 dereferenceable(32) %38)
          to label %122 unwind label %143

122:                                              ; preds = %120
  store <8 x float> %121, ptr %38, align 32, !tbaa !61
  %123 = load ptr, ptr %29, align 8, !tbaa !51
  %124 = load <8 x float>, ptr %38, align 32, !tbaa !61
  invoke void @_ZL15_mm256_store_psPfDv8_f(ptr noundef %123, <8 x float> noundef nofpclass(nan inf) %124)
          to label %125 unwind label %143

125:                                              ; preds = %122
  %126 = load ptr, ptr %30, align 8, !tbaa !51
  %127 = getelementptr inbounds float, ptr %126, i64 2
  store ptr %127, ptr %30, align 8, !tbaa !51
  %128 = load ptr, ptr %29, align 8, !tbaa !51
  %129 = getelementptr inbounds float, ptr %128, i64 8
  store ptr %129, ptr %29, align 8, !tbaa !51
  call void @llvm.lifetime.end.p0(i64 32, ptr %38) #8
  call void @llvm.lifetime.end.p0(i64 32, ptr %37) #8
  call void @llvm.lifetime.end.p0(i64 32, ptr %36) #8
  call void @llvm.lifetime.end.p0(i64 32, ptr %35) #8
  call void @llvm.lifetime.end.p0(i64 32, ptr %34) #8
  call void @llvm.lifetime.end.p0(i64 8, ptr %33) #8
  call void @llvm.lifetime.end.p0(i64 4, ptr %32) #8
  br label %130

130:                                              ; preds = %125
  %131 = load i32, ptr %31, align 4, !tbaa !21
  %132 = add nsw i32 %131, 1
  store i32 %132, ptr %31, align 4, !tbaa !21
  br label %84, !llvm.loop !81

133:                                              ; preds = %88
  call void @llvm.lifetime.end.p0(i64 8, ptr %30) #8
  call void @llvm.lifetime.end.p0(i64 8, ptr %29) #8
  call void @llvm.lifetime.end.p0(i64 8, ptr %28) #8
  br label %134

134:                                              ; preds = %133
  br label %135

135:                                              ; preds = %134
  %136 = load i32, ptr %19, align 4, !tbaa !21
  %137 = add nsw i32 %136, 1
  store i32 %137, ptr %19, align 4, !tbaa !21
  br label %66

138:                                              ; preds = %70
  br label %139

139:                                              ; preds = %138
  %140 = load ptr, ptr %9, align 8
  %141 = load i32, ptr %140, align 4, !tbaa !21
  call void @__kmpc_for_static_fini(ptr @1, i32 %141)
  call void @llvm.lifetime.end.p0(i64 4, ptr %27) #8
  call void @llvm.lifetime.end.p0(i64 4, ptr %26) #8
  call void @llvm.lifetime.end.p0(i64 4, ptr %25) #8
  call void @llvm.lifetime.end.p0(i64 4, ptr %24) #8
  call void @llvm.lifetime.end.p0(i64 4, ptr %23) #8
  br label %142

142:                                              ; preds = %139, %8
  call void @llvm.lifetime.end.p0(i64 4, ptr %21) #8
  call void @llvm.lifetime.end.p0(i64 4, ptr %20) #8
  call void @llvm.lifetime.end.p0(i64 4, ptr %19) #8
  ret void

143:                                              ; preds = %122, %120, %116, %112, %109, %104, %89, %78, %71
  %144 = landingpad { ptr, i32 }
          catch ptr null
  %145 = extractvalue { ptr, i32 } %144, 0
  call void @__clang_call_terminate(ptr %145) #24
  unreachable
}